target datalayout = "e-m:e-p270:32:32-p271:32:32-p272:64:64-i64:64-i128:128-f80:128-n8:16:32:64-S128"
target triple = "x86_64-pc-linux-gnu"

%struct.ec_group_st = type { ptr, ptr, %struct.bignum_st, %struct.bignum_st, i32, ptr, %struct.bignum_st, %struct.bignum_st, %struct.bignum_st, i32, ptr, %struct.bignum_st }
%struct.bignum_st = type { ptr, i32, i32, i32, i32 }
%struct.ec_point_st = type { ptr, %struct.bignum_st, %struct.bignum_st, %struct.bignum_st }

@.str = private unnamed_addr constant [119 x i8] c"generated/home/dtcxzyw/WorkSpace/Projects/compilers/llvm-opt-benchmark/bench/libquic/libquic/boringssl/crypto/ec/oct.c\00", align 1

; Function Attrs: nounwind uwtable
define internal i32 @ec_GFp_simple_oct2point(ptr noundef %0, ptr noundef %1, ptr noundef %2, i64 noundef %3, ptr noundef %4) #0 {
  %6 = alloca i32, align 4
  %7 = alloca ptr, align 8
  %8 = alloca ptr, align 8
  %9 = alloca ptr, align 8
  %10 = alloca i64, align 8
  %11 = alloca ptr, align 8
  %12 = alloca i32, align 4
  %13 = alloca i32, align 4
  %14 = alloca ptr, align 8
  %15 = alloca ptr, align 8
  %16 = alloca ptr, align 8
  %17 = alloca i64, align 8
  %18 = alloca i64, align 8
  %19 = alloca i32, align 4
  %20 = alloca i32, align 4
  store ptr %0, ptr %7, align 8, !tbaa !6
  store ptr %1, ptr %8, align 8, !tbaa !11
  store ptr %2, ptr %9, align 8, !tbaa !13
  store i64 %3, ptr %10, align 8, !tbaa !15
  store ptr %4, ptr %11, align 8, !tbaa !17
  call void @llvm.lifetime.start.p0(i64 4, ptr %12) #3
  call void @llvm.lifetime.start.p0(i64 4, ptr %13) #3
  call void @llvm.lifetime.start.p0(i64 8, ptr %14) #3
  store ptr null, ptr %14, align 8, !tbaa !17
  call void @llvm.lifetime.start.p0(i64 8, ptr %15) #3
  call void @llvm.lifetime.start.p0(i64 8, ptr %16) #3
  call void @llvm.lifetime.start.p0(i64 8, ptr %17) #3
  call void @llvm.lifetime.start.p0(i64 8, ptr %18) #3
  call void @llvm.lifetime.start.p0(i64 4, ptr %19) #3
  store i32 0, ptr %19, align 4, !tbaa !28
  %21 = load i64, ptr %10, align 8, !tbaa !15
  %22 = icmp eq i64 %21, 0
  br i1 %22, label %23, label %24

23:                                               ; preds = %5
  call void @ERR_put_error(i32 noundef 15, i32 noundef 0, i32 noundef 100, ptr noundef @.str, i32 noundef 183)
  store i32 0, ptr %6, align 4
  store i32 1, ptr %20, align 4
  br label %146

24:                                               ; preds = %5
  %25 = load ptr, ptr %9, align 8, !tbaa !13
  %26 = getelementptr inbounds i8, ptr %25, i64 0
  %27 = load i8, ptr %26, align 1, !tbaa !29
  %28 = zext i8 %27 to i32
  store i32 %28, ptr %12, align 4, !tbaa !28
  %29 = load i32, ptr %12, align 4, !tbaa !28
  %30 = and i32 %29, 1
  store i32 %30, ptr %13, align 4, !tbaa !28
  %31 = load i32, ptr %12, align 4, !tbaa !28
  %32 = and i32 %31, -2
  store i32 %32, ptr %12, align 4, !tbaa !28
  %33 = load i32, ptr %12, align 4, !tbaa !28
  %34 = icmp ne i32 %33, 2
  br i1 %34, label %35, label %38

35:                                               ; preds = %24
  %36 = load i32, ptr %12, align 4, !tbaa !28
  %37 = icmp ne i32 %36, 4
  br i1 %37, label %44, label %38

38:                                               ; preds = %35, %24
  %39 = load i32, ptr %12, align 4, !tbaa !28
  %40 = icmp eq i32 %39, 4
  br i1 %40, label %41, label %45

41:                                               ; preds = %38
  %42 = load i32, ptr %13, align 4, !tbaa !28
  %43 = icmp ne i32 %42, 0
  br i1 %43, label %44, label %45

44:                                               ; preds = %41, %35
  call void @ERR_put_error(i32 noundef 15, i32 noundef 0, i32 noundef 109, ptr noundef @.str, i32 noundef 192)
  store i32 0, ptr %6, align 4
  store i32 1, ptr %20, align 4
  br label %146

45:                                               ; preds = %41, %38
  %46 = load ptr, ptr %7, align 8, !tbaa !6
  %47 = getelementptr inbounds nuw %struct.ec_group_st, ptr %46, i32 0, i32 6
  %48 = call i32 @BN_num_bytes(ptr noundef %47)
  %49 = zext i32 %48 to i64
  store i64 %49, ptr %17, align 8, !tbaa !15
  %50 = load i32, ptr %12, align 4, !tbaa !28
  %51 = icmp eq i32 %50, 2
  br i1 %51, label %52, label %55

52:                                               ; preds = %45
  %53 = load i64, ptr %17, align 8, !tbaa !15
  %54 = add i64 1, %53
  br label %59

55:                                               ; preds = %45
  %56 = load i64, ptr %17, align 8, !tbaa !15
  %57 = mul i64 2, %56
  %58 = add i64 1, %57
  br label %59

59:                                               ; preds = %55, %52
  %60 = phi i64 [ %54, %52 ], [ %58, %55 ]
  store i64 %60, ptr %18, align 8, !tbaa !15
  %61 = load i64, ptr %10, align 8, !tbaa !15
  %62 = load i64, ptr %18, align 8, !tbaa !15
  %63 = icmp ne i64 %61, %62
  br i1 %63, label %64, label %65

64:                                               ; preds = %59
  call void @ERR_put_error(i32 noundef 15, i32 noundef 0, i32 noundef 109, ptr noundef @.str, i32 noundef 201)
  store i32 0, ptr %6, align 4
  store i32 1, ptr %20, align 4
  br label %146

65:                                               ; preds = %59
  %66 = load ptr, ptr %11, align 8, !tbaa !17
  %67 = icmp eq ptr %66, null
  br i1 %67, label %68, label %74

68:                                               ; preds = %65
  %69 = call ptr @BN_CTX_new()
  store ptr %69, ptr %14, align 8, !tbaa !17
  store ptr %69, ptr %11, align 8, !tbaa !17
  %70 = load ptr, ptr %11, align 8, !tbaa !17
  %71 = icmp eq ptr %70, null
  br i1 %71, label %72, label %73

72:                                               ; preds = %68
  store i32 0, ptr %6, align 4
  store i32 1, ptr %20, align 4
  br label %146

73:                                               ; preds = %68
  br label %74

74:                                               ; preds = %73, %65
  %75 = load ptr, ptr %11, align 8, !tbaa !17
  call void @BN_CTX_start(ptr noundef %75)
  %76 = load ptr, ptr %11, align 8, !tbaa !17
  %77 = call ptr @BN_CTX_get(ptr noundef %76)
  store ptr %77, ptr %15, align 8, !tbaa !30
  %78 = load ptr, ptr %11, align 8, !tbaa !17
  %79 = call ptr @BN_CTX_get(ptr noundef %78)
  store ptr %79, ptr %16, align 8, !tbaa !30
  %80 = load ptr, ptr %15, align 8, !tbaa !30
  %81 = icmp eq ptr %80, null
  br i1 %81, label %85, label %82

82:                                               ; preds = %74
  %83 = load ptr, ptr %16, align 8, !tbaa !30
  %84 = icmp eq ptr %83, null
  br i1 %84, label %85, label %86

85:                                               ; preds = %82, %74
  br label %142

86:                                               ; preds = %82
  %87 = load ptr, ptr %9, align 8, !tbaa !13
  %88 = getelementptr inbounds i8, ptr %87, i64 1
  %89 = load i64, ptr %17, align 8, !tbaa !15
  %90 = load ptr, ptr %15, align 8, !tbaa !30
  %91 = call ptr @BN_bin2bn(ptr noundef %88, i64 noundef %89, ptr noundef %90)
  %92 = icmp ne ptr %91, null
  br i1 %92, label %94, label %93

93:                                               ; preds = %86
  br label %142

94:                                               ; preds = %86
  %95 = load ptr, ptr %15, align 8, !tbaa !30
  %96 = load ptr, ptr %7, align 8, !tbaa !6
  %97 = getelementptr inbounds nuw %struct.ec_group_st, ptr %96, i32 0, i32 6
  %98 = call i32 @BN_ucmp(ptr noundef %95, ptr noundef %97)
  %99 = icmp sge i32 %98, 0
  br i1 %99, label %100, label %101

100:                                              ; preds = %94
  call void @ERR_put_error(i32 noundef 15, i32 noundef 0, i32 noundef 109, ptr noundef @.str, i32 noundef 223)
  br label %142

101:                                              ; preds = %94
  %102 = load i32, ptr %12, align 4, !tbaa !28
  %103 = icmp eq i32 %102, 2
  br i1 %103, label %104, label %114

104:                                              ; preds = %101
  %105 = load ptr, ptr %7, align 8, !tbaa !6
  %106 = load ptr, ptr %8, align 8, !tbaa !11
  %107 = load ptr, ptr %15, align 8, !tbaa !30
  %108 = load i32, ptr %13, align 4, !tbaa !28
  %109 = load ptr, ptr %11, align 8, !tbaa !17
  %110 = call i32 @EC_POINT_set_compressed_coordinates_GFp(ptr noundef %105, ptr noundef %106, ptr noundef %107, i32 noundef %108, ptr noundef %109)
  %111 = icmp ne i32 %110, 0
  br i1 %111, label %113, label %112

112:                                              ; preds = %104
  br label %142

113:                                              ; preds = %104
  br label %141

114:                                              ; preds = %101
  %115 = load ptr, ptr %9, align 8, !tbaa !13
  %116 = getelementptr inbounds i8, ptr %115, i64 1
  %117 = load i64, ptr %17, align 8, !tbaa !15
  %118 = getelementptr inbounds nuw i8, ptr %116, i64 %117
  %119 = load i64, ptr %17, align 8, !tbaa !15
  %120 = load ptr, ptr %16, align 8, !tbaa !30
  %121 = call ptr @BN_bin2bn(ptr noundef %118, i64 noundef %119, ptr noundef %120)
  %122 = icmp ne ptr %121, null
  br i1 %122, label %124, label %123

123:                                              ; preds = %114
  br label %142

124:                                              ; preds = %114
  %125 = load ptr, ptr %16, align 8, !tbaa !30
  %126 = load ptr, ptr %7, align 8, !tbaa !6
  %127 = getelementptr inbounds nuw %struct.ec_group_st, ptr %126, i32 0, i32 6
  %128 = call i32 @BN_ucmp(ptr noundef %125, ptr noundef %127)
  %129 = icmp sge i32 %128, 0
  br i1 %129, label %130, label %131

130:                                              ; preds = %124
  call void @ERR_put_error(i32 noundef 15, i32 noundef 0, i32 noundef 109, ptr noundef @.str, i32 noundef 236)
  br label %142

131:                                              ; preds = %124
  %132 = load ptr, ptr %7, align 8, !tbaa !6
  %133 = load ptr, ptr %8, align 8, !tbaa !11
  %134 = load ptr, ptr %15, align 8, !tbaa !30
  %135 = load ptr, ptr %16, align 8, !tbaa !30
  %136 = load ptr, ptr %11, align 8, !tbaa !17
  %137 = call i32 @EC_POINT_set_affine_coordinates_GFp(ptr noundef %132, ptr noundef %133, ptr noundef %134, ptr noundef %135, ptr noundef %136)
  %138 = icmp ne i32 %137, 0
  br i1 %138, label %140, label %139

139:                                              ; preds = %131
  br label %142

140:                                              ; preds = %131
  br label %141

141:                                              ; preds = %140, %113
  store i32 1, ptr %19, align 4, !tbaa !28
  br label %142

142:                                              ; preds = %141, %139, %130, %123, %112, %100, %93, %85
  %143 = load ptr, ptr %11, align 8, !tbaa !17
  call void @BN_CTX_end(ptr noundef %143)
  %144 = load ptr, ptr %14, align 8, !tbaa !17
  call void @BN_CTX_free(ptr noundef %144)
  %145 = load i32, ptr %19, align 4, !tbaa !28
  store i32 %145, ptr %6, align 4
  store i32 1, ptr %20, align 4
  br label %146

146:                                              ; preds = %142, %72, %64, %44, %23
  call void @llvm.lifetime.end.p0(i64 4, ptr %19) #3
  call void @llvm.lifetime.end.p0(i64 8, ptr %18) #3
  call void @llvm.lifetime.end.p0(i64 8, ptr %17) #3
  call void @llvm.lifetime.end.p0(i64 8, ptr %16) #3
  call void @llvm.lifetime.end.p0(i64 8, ptr %15) #3
  call void @llvm.lifetime.end.p0(i64 8, ptr %14) #3
  call void @llvm.lifetime.end.p0(i64 4, ptr %13) #3
  call void @llvm.lifetime.end.p0(i64 4, ptr %12) #3
  %147 = load i32, ptr %6, align 4
  ret i32 %147
}

; Function Attrs: nounwind uwtable
define hidden i32 @EC_POINT_oct2point(ptr noundef %0, ptr noundef %1, ptr noundef %2, i64 noundef %3, ptr noundef %4) #0 {
  %6 = alloca i32, align 4
  %7 = alloca ptr, align 8
  %8 = alloca ptr, align 8
  %9 = alloca ptr, align 8
  %10 = alloca i64, align 8
  %11 = alloca ptr, align 8
  store ptr %0, ptr %7, align 8, !tbaa !6
  store ptr %1, ptr %8, align 8, !tbaa !11
  store ptr %2, ptr %9, align 8, !tbaa !13
  store i64 %3, ptr %10, align 8, !tbaa !15
  store ptr %4, ptr %11, align 8, !tbaa !17
  %12 = load ptr, ptr %7, align 8, !tbaa !6
  %13 = getelementptr inbounds nuw %struct.ec_group_st, ptr %12, i32 0, i32 0
  %14 = load ptr, ptr %13, align 8, !tbaa !19
  %15 = load ptr, ptr %8, align 8, !tbaa !11
  %16 = getelementptr inbounds nuw %struct.ec_point_st, ptr %15, i32 0, i32 0
  %17 = load ptr, ptr %16, align 8, !tbaa !26
  %18 = icmp ne ptr %14, %17
  br i1 %18, label %19, label %20

19:                                               ; preds = %5
  call void @ERR_put_error(i32 noundef 15, i32 noundef 0, i32 noundef 106, ptr noundef @.str, i32 noundef 256)
  store i32 0, ptr %6, align 4
  br label %27

20:                                               ; preds = %5
  %21 = load ptr, ptr %7, align 8, !tbaa !6
  %22 = load ptr, ptr %8, align 8, !tbaa !11
  %23 = load ptr, ptr %9, align 8, !tbaa !13
  %24 = load i64, ptr %10, align 8, !tbaa !15
  %25 = load ptr, ptr %11, align 8, !tbaa !17
  %26 = call i32 @ec_GFp_simple_oct2point(ptr noundef %21, ptr noundef %22, ptr noundef %23, i64 noundef %24, ptr noundef %25)
  store i32 %26, ptr %6, align 4
  br label %27

27:                                               ; preds = %20, %19
  %28 = load i32, ptr %6, align 4
  ret i32 %28
}