; Function Attrs: nounwind uwtable
define hidden range(i32 0, 2) i32 @EC_POINT_oct2point(ptr noundef %0, ptr noundef %1, ptr noundef %2, i64 noundef %3, ptr noundef %4) local_unnamed_addr #0 {
  %6 = load ptr, ptr %0, align 8, !tbaa !6
  %7 = load ptr, ptr %1, align 8, !tbaa !17
  %.not = icmp eq ptr %6, %7
  br i1 %.not, label %9, label %8

8:                                                ; preds = %5
  tail call void @ERR_put_error(i32 noundef 15, i32 noundef 0, i32 noundef 106, ptr noundef nonnull @.str, i32 noundef 256) #3
  br label %ec_GFp_simple_oct2point.exit

9:                                                ; preds = %5
  %10 = icmp eq i64 %3, 0
  br i1 %10, label %11, label %12

11:                                               ; preds = %9
  tail call void @ERR_put_error(i32 noundef 15, i32 noundef 0, i32 noundef 100, ptr noundef nonnull @.str, i32 noundef 183) #3
  br label %ec_GFp_simple_oct2point.exit

12:                                               ; preds = %9
  %13 = load i8, ptr %2, align 1, !tbaa !19
  %14 = zext i8 %13 to i32
  %15 = and i32 %14, 1
  %16 = and i32 %14, 254
  %trunc.i = trunc nuw i32 %16 to i8
  switch i8 %trunc.i, label %18 [
    i8 4, label %17
    i8 2, label %17
  ]

17:                                               ; preds = %12, %12
  %or.cond3.i = icmp eq i8 %13, 5
  br i1 %or.cond3.i, label %18, label %19

18:                                               ; preds = %17, %12
  tail call void @ERR_put_error(i32 noundef 15, i32 noundef 0, i32 noundef 109, ptr noundef nonnull @.str, i32 noundef 192) #3
  br label %ec_GFp_simple_oct2point.exit

19:                                               ; preds = %17
  %20 = getelementptr inbounds nuw i8, ptr %0, i64 80
  %21 = tail call i32 @BN_num_bytes(ptr noundef nonnull %20) #3
  %22 = zext i32 %21 to i64
  %23 = icmp eq i32 %16, 2
  %24 = add nuw nsw i64 %22, 1
  %25 = shl nuw nsw i64 %22, 1
  %26 = or disjoint i64 %25, 1
  %27 = select i1 %23, i64 %24, i64 %26
  %.not.i = icmp eq i64 %3, %27
  br i1 %.not.i, label %29, label %28

28:                                               ; preds = %19
  tail call void @ERR_put_error(i32 noundef 15, i32 noundef 0, i32 noundef 109, ptr noundef nonnull @.str, i32 noundef 201) #3
  br label %ec_GFp_simple_oct2point.exit

29:                                               ; preds = %19
  %30 = icmp eq ptr %4, null
  br i1 %30, label %31, label %34

31:                                               ; preds = %29
  %32 = tail call ptr @BN_CTX_new() #3
  %33 = icmp eq ptr %32, null
  br i1 %33, label %ec_GFp_simple_oct2point.exit, label %34

34:                                               ; preds = %31, %29
  %.053.i = phi ptr [ %32, %31 ], [ null, %29 ]
  %.052.i = phi ptr [ %32, %31 ], [ %4, %29 ]
  tail call void @BN_CTX_start(ptr noundef nonnull %.052.i) #3
  %35 = tail call ptr @BN_CTX_get(ptr noundef nonnull %.052.i) #3
  %36 = tail call ptr @BN_CTX_get(ptr noundef nonnull %.052.i) #3
  %37 = icmp eq ptr %35, null
  %38 = icmp eq ptr %36, null
  %or.cond5.i = select i1 %37, i1 true, i1 %38
  br i1 %or.cond5.i, label %59, label %39

39:                                               ; preds = %34
  %40 = getelementptr inbounds nuw i8, ptr %2, i64 1
  %41 = tail call ptr @BN_bin2bn(ptr noundef nonnull %40, i64 noundef %22, ptr noundef nonnull %35) #3
  %.not59.i = icmp eq ptr %41, null
  br i1 %.not59.i, label %59, label %42

42:                                               ; preds = %39
  %43 = tail call i32 @BN_ucmp(ptr noundef nonnull %35, ptr noundef nonnull %20) #3
  %44 = icmp sgt i32 %43, -1
  br i1 %44, label %45, label %46

45:                                               ; preds = %42
  tail call void @ERR_put_error(i32 noundef 15, i32 noundef 0, i32 noundef 109, ptr noundef nonnull @.str, i32 noundef 223) #3
  br label %59

46:                                               ; preds = %42
  br i1 %23, label %47, label %49

47:                                               ; preds = %46
  %48 = tail call i32 @EC_POINT_set_compressed_coordinates_GFp(ptr noundef nonnull %0, ptr noundef nonnull %1, ptr noundef nonnull %35, i32 noundef %15, ptr noundef nonnull %.052.i)
  %.not62.i = icmp eq i32 %48, 0
  br i1 %.not62.i, label %59, label %58

49:                                               ; preds = %46
  %50 = getelementptr inbounds nuw i8, ptr %40, i64 %22
  %51 = tail call ptr @BN_bin2bn(ptr noundef nonnull %50, i64 noundef %22, ptr noundef nonnull %36) #3
  %.not60.i = icmp eq ptr %51, null
  br i1 %.not60.i, label %59, label %52

52:                                               ; preds = %49
  %53 = tail call i32 @BN_ucmp(ptr noundef nonnull %36, ptr noundef nonnull %20) #3
  %54 = icmp sgt i32 %53, -1
  br i1 %54, label %55, label %56

55:                                               ; preds = %52
  tail call void @ERR_put_error(i32 noundef 15, i32 noundef 0, i32 noundef 109, ptr noundef nonnull @.str, i32 noundef 236) #3
  br label %59

56:                                               ; preds = %52
  %57 = tail call i32 @EC_POINT_set_affine_coordinates_GFp(ptr noundef nonnull %0, ptr noundef nonnull %1, ptr noundef nonnull %35, ptr noundef nonnull %36, ptr noundef nonnull %.052.i) #3
  %.not61.i = icmp eq i32 %57, 0
  br i1 %.not61.i, label %59, label %58

58:                                               ; preds = %56, %47
  br label %59

59:                                               ; preds = %58, %56, %55, %49, %47, %45, %39, %34
  %.0.i = phi i32 [ 0, %34 ], [ 0, %45 ], [ 1, %58 ], [ 0, %47 ], [ 0, %55 ], [ 0, %56 ], [ 0, %49 ], [ 0, %39 ]
  tail call void @BN_CTX_end(ptr noundef nonnull %.052.i) #3
  tail call void @BN_CTX_free(ptr noundef %.053.i) #3
  br label %ec_GFp_simple_oct2point.exit

ec_GFp_simple_oct2point.exit:                     ; preds = %59, %31, %28, %18, %11, %8
  %.0 = phi i32 [ 0, %8 ], [ 0, %11 ], [ 0, %18 ], [ 0, %28 ], [ %.0.i, %59 ], [ 0, %31 ]
  ret i32 %.0
}